; Function Attrs: mustprogress nounwind uwtable
define hidden void @_ZN4cvc58internal6theory11quantifiers8SygusPbeD2Ev(ptr noundef nonnull align 8 dereferenceable(216) initializes((0, 8)) %0) unnamed_addr #5 align 2 personality ptr @__gxx_personality_v0 {
  store ptr getelementptr inbounds nuw inrange(-16, 64) (i8, ptr @_ZTVN4cvc58internal6theory11quantifiers8SygusPbeE, i64 16), ptr %0, align 8, !tbaa !3
  %2 = getelementptr inbounds nuw i8, ptr %0, i64 168
  %3 = getelementptr inbounds nuw i8, ptr %0, i64 184
  %4 = load ptr, ptr %3, align 8, !tbaa !19
  invoke void @_ZNSt8_Rb_treeIN4cvc58internal12NodeTemplateILb1EEESt4pairIKS3_S3_ESt10_Select1stIS6_ESt4lessIS3_ESaIS6_EE8_M_eraseEPSt13_Rb_tree_nodeIS6_E(ptr noundef nonnull align 8 dereferenceable(48) %2, ptr noundef %4)
          to label %_ZNSt3mapIN4cvc58internal12NodeTemplateILb1EEES3_St4lessIS3_ESaISt4pairIKS3_S3_EEED2Ev.exit unwind label %5

5:                                                ; preds = %1
  %6 = landingpad { ptr, i32 }
          catch ptr null
  %7 = extractvalue { ptr, i32 } %6, 0
  tail call void @__clang_call_terminate(ptr %7) #23
  unreachable

_ZNSt3mapIN4cvc58internal12NodeTemplateILb1EEES3_St4lessIS3_ESaISt4pairIKS3_S3_EEED2Ev.exit: ; preds = %1
  %8 = getelementptr inbounds nuw i8, ptr %0, i64 120
  %9 = getelementptr inbounds nuw i8, ptr %0, i64 136
  %10 = load ptr, ptr %9, align 8, !tbaa !19
  invoke void @_ZNSt8_Rb_treeIN4cvc58internal12NodeTemplateILb1EEESt4pairIKS3_St6vectorIS3_SaIS3_EEESt10_Select1stIS9_ESt4lessIS3_ESaIS9_EE8_M_eraseEPSt13_Rb_tree_nodeIS9_E(ptr noundef nonnull align 8 dereferenceable(48) %8, ptr noundef %10)
          to label %_ZNSt3mapIN4cvc58internal12NodeTemplateILb1EEESt6vectorIS3_SaIS3_EESt4lessIS3_ESaISt4pairIKS3_S6_EEED2Ev.exit unwind label %11

11:                                               ; preds = %_ZNSt3mapIN4cvc58internal12NodeTemplateILb1EEES3_St4lessIS3_ESaISt4pairIKS3_S3_EEED2Ev.exit
  %12 = landingpad { ptr, i32 }
          catch ptr null
  %13 = extractvalue { ptr, i32 } %12, 0
  tail call void @__clang_call_terminate(ptr %13) #23
  unreachable

_ZNSt3mapIN4cvc58internal12NodeTemplateILb1EEESt6vectorIS3_SaIS3_EESt4lessIS3_ESaISt4pairIKS3_S6_EEED2Ev.exit: ; preds = %_ZNSt3mapIN4cvc58internal12NodeTemplateILb1EEES3_St4lessIS3_ESaISt4pairIKS3_S3_EEED2Ev.exit
  %14 = getelementptr inbounds nuw i8, ptr %0, i64 72
  %15 = getelementptr inbounds nuw i8, ptr %0, i64 88
  %16 = load ptr, ptr %15, align 8, !tbaa !19
  invoke void @_ZNSt8_Rb_treeIN4cvc58internal12NodeTemplateILb1EEESt4pairIKS3_St10unique_ptrINS1_6theory11quantifiers11SygusUnifIoESt14default_deleteIS9_EEESt10_Select1stISD_ESt4lessIS3_ESaISD_EE8_M_eraseEPSt13_Rb_tree_nodeISD_E(ptr noundef nonnull align 8 dereferenceable(48) %14, ptr noundef %16)
          to label %_ZNSt3mapIN4cvc58internal12NodeTemplateILb1EEESt10unique_ptrINS1_6theory11quantifiers11SygusUnifIoESt14default_deleteIS7_EESt4lessIS3_ESaISt4pairIKS3_SA_EEED2Ev.exit unwind label %17

17:                                               ; preds = %_ZNSt3mapIN4cvc58internal12NodeTemplateILb1EEESt6vectorIS3_SaIS3_EESt4lessIS3_ESaISt4pairIKS3_S6_EEED2Ev.exit
  %18 = landingpad { ptr, i32 }
          catch ptr null
  %19 = extractvalue { ptr, i32 } %18, 0
  tail call void @__clang_call_terminate(ptr %19) #23
  unreachable

_ZNSt3mapIN4cvc58internal12NodeTemplateILb1EEESt10unique_ptrINS1_6theory11quantifiers11SygusUnifIoESt14default_deleteIS7_EESt4lessIS3_ESaISt4pairIKS3_SA_EEED2Ev.exit: ; preds = %_ZNSt3mapIN4cvc58internal12NodeTemplateILb1EEESt6vectorIS3_SaIS3_EESt4lessIS3_ESaISt4pairIKS3_S6_EEED2Ev.exit
  %20 = getelementptr inbounds nuw i8, ptr %0, i64 56
  %21 = load ptr, ptr %20, align 8, !tbaa !11
  %22 = load i64, ptr %21, align 8
  %23 = and i64 %22, 1152920405095219200
  %.not.i.i = icmp eq i64 %23, 1152920405095219200
  br i1 %.not.i.i, label %_ZN4cvc58internal12NodeTemplateILb1EED2Ev.exit, label %24, !prof !25

24:                                               ; preds = %_ZNSt3mapIN4cvc58internal12NodeTemplateILb1EEESt10unique_ptrINS1_6theory11quantifiers11SygusUnifIoESt14default_deleteIS7_EESt4lessIS3_ESaISt4pairIKS3_SA_EEED2Ev.exit
  %25 = add i64 %22, 1152920405095219200
  %26 = and i64 %25, 1152920405095219200
  %27 = and i64 %22, -1152920405095219201
  %28 = or disjoint i64 %26, %27
  store i64 %28, ptr %21, align 8
  %29 = icmp eq i64 %26, 0
  br i1 %29, label %30, label %_ZN4cvc58internal12NodeTemplateILb1EED2Ev.exit, !prof !25

30:                                               ; preds = %24
  invoke void @_ZN4cvc58internal4expr9NodeValue15markForDeletionEv(ptr noundef nonnull align 8 dereferenceable(24) %21)
          to label %_ZN4cvc58internal12NodeTemplateILb1EED2Ev.exit unwind label %31

31:                                               ; preds = %30
  %32 = landingpad { ptr, i32 }
          catch ptr null
  %33 = extractvalue { ptr, i32 } %32, 0
  tail call void @__clang_call_terminate(ptr %33) #23
  unreachable

_ZN4cvc58internal12NodeTemplateILb1EED2Ev.exit:   ; preds = %_ZNSt3mapIN4cvc58internal12NodeTemplateILb1EEESt10unique_ptrINS1_6theory11quantifiers11SygusUnifIoESt14default_deleteIS7_EESt4lessIS3_ESaISt4pairIKS3_SA_EEED2Ev.exit, %24, %30
  %34 = getelementptr inbounds nuw i8, ptr %0, i64 48
  %35 = load ptr, ptr %34, align 8, !tbaa !11
  %36 = load i64, ptr %35, align 8
  %37 = and i64 %36, 1152920405095219200
  %.not.i.i1 = icmp eq i64 %37, 1152920405095219200
  br i1 %.not.i.i1, label %_ZN4cvc58internal12NodeTemplateILb1EED2Ev.exit2, label %38, !prof !25

38:                                               ; preds = %_ZN4cvc58internal12NodeTemplateILb1EED2Ev.exit
  %39 = add i64 %36, 1152920405095219200
  %40 = and i64 %39, 1152920405095219200
  %41 = and i64 %36, -1152920405095219201
  %42 = or disjoint i64 %40, %41
  store i64 %42, ptr %35, align 8
  %43 = icmp eq i64 %40, 0
  br i1 %43, label %44, label %_ZN4cvc58internal12NodeTemplateILb1EED2Ev.exit2, !prof !25

44:                                               ; preds = %38
  invoke void @_ZN4cvc58internal4expr9NodeValue15markForDeletionEv(ptr noundef nonnull align 8 dereferenceable(24) %35)
          to label %_ZN4cvc58internal12NodeTemplateILb1EED2Ev.exit2 unwind label %45

45:                                               ; preds = %44
  %46 = landingpad { ptr, i32 }
          catch ptr null
  %47 = extractvalue { ptr, i32 } %46, 0
  tail call void @__clang_call_terminate(ptr %47) #23
  unreachable

_ZN4cvc58internal12NodeTemplateILb1EED2Ev.exit2:  ; preds = %_ZN4cvc58internal12NodeTemplateILb1EED2Ev.exit, %38, %44
  ret void
}